target datalayout = "e-m:e-p270:32:32-p271:32:32-p272:64:64-i64:64-i128:128-f80:128-n8:16:32:64-S128"
target triple = "x86_64-pc-linux-gnu"

%struct._value_string_ext = type { ptr, i32, i32, ptr, ptr }

@hf_usb_hid_bcdHID = internal global i32 0, align 4
@hf_usb_hid_bCountryCode = internal global i32 0, align 4
@hf_usb_hid_bNumDescriptors = internal global i32 0, align 4
@hf_usb_hid_bDescriptorType = internal global i32 0, align 4
@hid_descriptor_type_vals_ext = internal global %struct._value_string_ext { ptr @_try_val_to_str_ext_init, i32 0, i32 2, ptr @hid_descriptor_type_vals, ptr @.str.3200 }, align 8
@hf_usb_hid_wDescriptorLength = internal global i32 0, align 4
@ett_usb_hid_descriptor = internal global i32 0, align 4
@.str.3413 = private unnamed_addr constant [15 x i8] c"HID DESCRIPTOR\00", align 1

; Function Attrs: null_pointer_is_valid sspstrong uwtable
define internal i32 @dissect_usb_hid_class_descriptors(ptr noundef %0, ptr noundef %1, ptr noundef %2, ptr noundef %3) #0 {
  %5 = alloca i32, align 4
  %6 = alloca ptr, align 8
  %7 = alloca ptr, align 8
  %8 = alloca ptr, align 8
  %9 = alloca ptr, align 8
  %10 = alloca i8, align 1
  %11 = alloca i32, align 4
  %12 = alloca ptr, align 8
  %13 = alloca ptr, align 8
  %14 = alloca i8, align 1
  %15 = alloca i32, align 4
  %16 = alloca i32, align 4
  store ptr %0, ptr %6, align 8
  store ptr %1, ptr %7, align 8
  store ptr %2, ptr %8, align 8
  store ptr %3, ptr %9, align 8
  call void @llvm.lifetime.start.p0(i64 1, ptr %10) #11
  call void @llvm.lifetime.start.p0(i64 4, ptr %11) #11
  store i32 0, ptr %11, align 4
  call void @llvm.lifetime.start.p0(i64 8, ptr %12) #11
  call void @llvm.lifetime.start.p0(i64 8, ptr %13) #11
  call void @llvm.lifetime.start.p0(i64 1, ptr %14) #11
  call void @llvm.lifetime.start.p0(i64 4, ptr %15) #11
  %17 = load ptr, ptr %6, align 8
  %18 = call zeroext i8 @tvb_get_uint8(ptr noundef %17, i32 noundef 1)
  store i8 %18, ptr %10, align 1
  %19 = load i8, ptr %10, align 1
  %20 = zext i8 %19 to i32
  %21 = icmp ne i32 %20, 33
  br i1 %21, label %22, label %23

22:                                               ; preds = %4
  store i32 0, ptr %5, align 4
  store i32 1, ptr %16, align 4
  br label %86

23:                                               ; preds = %4
  %24 = load ptr, ptr %8, align 8
  %25 = load ptr, ptr %6, align 8
  %26 = load i32, ptr %11, align 4
  %27 = load i32, ptr @ett_usb_hid_descriptor, align 4
  %28 = call ptr @proto_tree_add_subtree(ptr noundef %24, ptr noundef %25, i32 noundef %26, i32 noundef -1, i32 noundef %27, ptr noundef %12, ptr noundef @.str.3413)
  store ptr %28, ptr %13, align 8
  %29 = load ptr, ptr %13, align 8
  %30 = load ptr, ptr %6, align 8
  %31 = load i32, ptr %11, align 4
  %32 = call ptr @dissect_usb_descriptor_header(ptr noundef %29, ptr noundef %30, i32 noundef %31, ptr noundef @hid_descriptor_type_vals_ext)
  %33 = load i32, ptr %11, align 4
  %34 = add i32 %33, 2
  store i32 %34, ptr %11, align 4
  %35 = load ptr, ptr %13, align 8
  %36 = load i32, ptr @hf_usb_hid_bcdHID, align 4
  %37 = load ptr, ptr %6, align 8
  %38 = load i32, ptr %11, align 4
  %39 = call ptr @proto_tree_add_item(ptr noundef %35, i32 noundef %36, ptr noundef %37, i32 noundef %38, i32 noundef 2, i32 noundef -2147483648)
  %40 = load i32, ptr %11, align 4
  %41 = add i32 %40, 2
  store i32 %41, ptr %11, align 4
  %42 = load ptr, ptr %13, align 8
  %43 = load i32, ptr @hf_usb_hid_bCountryCode, align 4
  %44 = load ptr, ptr %6, align 8
  %45 = load i32, ptr %11, align 4
  %46 = call ptr @proto_tree_add_item(ptr noundef %42, i32 noundef %43, ptr noundef %44, i32 noundef %45, i32 noundef 1, i32 noundef -2147483648)
  %47 = load i32, ptr %11, align 4
  %48 = add i32 %47, 1
  store i32 %48, ptr %11, align 4
  %49 = load ptr, ptr %6, align 8
  %50 = load i32, ptr %11, align 4
  %51 = call zeroext i8 @tvb_get_uint8(ptr noundef %49, i32 noundef %50)
  store i8 %51, ptr %14, align 1
  %52 = load ptr, ptr %13, align 8
  %53 = load i32, ptr @hf_usb_hid_bNumDescriptors, align 4
  %54 = load ptr, ptr %6, align 8
  %55 = load i32, ptr %11, align 4
  %56 = call ptr @proto_tree_add_item(ptr noundef %52, i32 noundef %53, ptr noundef %54, i32 noundef %55, i32 noundef 1, i32 noundef -2147483648)
  %57 = load i32, ptr %11, align 4
  %58 = add i32 %57, 1
  store i32 %58, ptr %11, align 4
  store i32 0, ptr %15, align 4
  br label %59

59:                                               ; preds = %79, %23
  %60 = load i32, ptr %15, align 4
  %61 = load i8, ptr %14, align 1
  %62 = zext i8 %61 to i32
  %63 = icmp ult i32 %60, %62
  br i1 %63, label %64, label %82

64:                                               ; preds = %59
  %65 = load ptr, ptr %13, align 8
  %66 = load i32, ptr @hf_usb_hid_bDescriptorType, align 4
  %67 = load ptr, ptr %6, align 8
  %68 = load i32, ptr %11, align 4
  %69 = call ptr @proto_tree_add_item(ptr noundef %65, i32 noundef %66, ptr noundef %67, i32 noundef %68, i32 noundef 1, i32 noundef -2147483648)
  %70 = load i32, ptr %11, align 4
  %71 = add i32 %70, 1
  store i32 %71, ptr %11, align 4
  %72 = load ptr, ptr %13, align 8
  %73 = load i32, ptr @hf_usb_hid_wDescriptorLength, align 4
  %74 = load ptr, ptr %6, align 8
  %75 = load i32, ptr %11, align 4
  %76 = call ptr @proto_tree_add_item(ptr noundef %72, i32 noundef %73, ptr noundef %74, i32 noundef %75, i32 noundef 2, i32 noundef -2147483648)
  %77 = load i32, ptr %11, align 4
  %78 = add i32 %77, 2
  store i32 %78, ptr %11, align 4
  br label %79

79:                                               ; preds = %64
  %80 = load i32, ptr %15, align 4
  %81 = add i32 %80, 1
  store i32 %81, ptr %15, align 4
  br label %59, !llvm.loop !15

82:                                               ; preds = %59
  %83 = load ptr, ptr %12, align 8
  %84 = load i32, ptr %11, align 4
  call void @proto_item_set_len(ptr noundef %83, i32 noundef %84)
  %85 = load i32, ptr %11, align 4
  store i32 %85, ptr %5, align 4
  store i32 1, ptr %16, align 4
  br label %86

86:                                               ; preds = %82, %22
  call void @llvm.lifetime.end.p0(i64 4, ptr %15) #11
  call void @llvm.lifetime.end.p0(i64 1, ptr %14) #11
  call void @llvm.lifetime.end.p0(i64 8, ptr %13) #11
  call void @llvm.lifetime.end.p0(i64 8, ptr %12) #11
  call void @llvm.lifetime.end.p0(i64 4, ptr %11) #11
  call void @llvm.lifetime.end.p0(i64 1, ptr %10) #11
  %87 = load i32, ptr %5, align 4
  ret i32 %87
}