; Function Attrs: null_pointer_is_valid sspstrong uwtable
define internal range(i32 3, 1) i32 @dissect_usb_hid_class_descriptors(ptr noundef %0, ptr readnone captures(none) %1, ptr noundef %2, ptr readnone captures(none) %3) #0 {
  %5 = alloca ptr, align 8
  call void @llvm.lifetime.start.p0(i64 8, ptr nonnull %5) #7
  %6 = tail call zeroext i8 @tvb_get_uint8(ptr noundef %0, i32 noundef 1)
  %.not = icmp eq i8 %6, 33
  br i1 %.not, label %7, label %27

7:                                                ; preds = %4
  %8 = load i32, ptr @ett_usb_hid_descriptor, align 4
  %9 = call ptr @proto_tree_add_subtree(ptr noundef %2, ptr noundef %0, i32 noundef 0, i32 noundef -1, i32 noundef %8, ptr noundef nonnull %5, ptr noundef nonnull @.str.3413)
  %10 = call ptr @dissect_usb_descriptor_header(ptr noundef %9, ptr noundef %0, i32 noundef 0, ptr noundef nonnull @hid_descriptor_type_vals_ext)
  %11 = load i32, ptr @hf_usb_hid_bcdHID, align 4
  %12 = call ptr @proto_tree_add_item(ptr noundef %9, i32 noundef %11, ptr noundef %0, i32 noundef 2, i32 noundef 2, i32 noundef -2147483648)
  %13 = load i32, ptr @hf_usb_hid_bCountryCode, align 4
  %14 = call ptr @proto_tree_add_item(ptr noundef %9, i32 noundef %13, ptr noundef %0, i32 noundef 4, i32 noundef 1, i32 noundef -2147483648)
  %15 = call zeroext i8 @tvb_get_uint8(ptr noundef %0, i32 noundef 5)
  %16 = load i32, ptr @hf_usb_hid_bNumDescriptors, align 4
  %17 = call ptr @proto_tree_add_item(ptr noundef %9, i32 noundef %16, ptr noundef %0, i32 noundef 5, i32 noundef 1, i32 noundef -2147483648)
  %18 = zext i8 %15 to i32
  %.not40 = icmp eq i8 %15, 0
  br i1 %.not40, label %._crit_edge, label %.lr.ph

.lr.ph:                                           ; preds = %7, %.lr.ph
  %.039 = phi i32 [ %25, %.lr.ph ], [ 0, %7 ]
  %.03738 = phi i32 [ %24, %.lr.ph ], [ 6, %7 ]
  %19 = load i32, ptr @hf_usb_hid_bDescriptorType, align 4
  %20 = call ptr @proto_tree_add_item(ptr noundef %9, i32 noundef %19, ptr noundef %0, i32 noundef %.03738, i32 noundef 1, i32 noundef -2147483648)
  %21 = add nuw nsw i32 %.03738, 1
  %22 = load i32, ptr @hf_usb_hid_wDescriptorLength, align 4
  %23 = call ptr @proto_tree_add_item(ptr noundef %9, i32 noundef %22, ptr noundef %0, i32 noundef %21, i32 noundef 2, i32 noundef -2147483648)
  %24 = add nuw nsw i32 %.03738, 3
  %25 = add nuw nsw i32 %.039, 1
  %exitcond.not = icmp eq i32 %25, %18
  br i1 %exitcond.not, label %._crit_edge, label %.lr.ph, !llvm.loop !19

._crit_edge:                                      ; preds = %.lr.ph, %7
  %.037.lcssa = phi i32 [ 6, %7 ], [ %24, %.lr.ph ]
  %26 = load ptr, ptr %5, align 8
  call void @proto_item_set_len(ptr noundef %26, i32 noundef %.037.lcssa)
  br label %27

27:                                               ; preds = %4, %._crit_edge
  %.036 = phi i32 [ %.037.lcssa, %._crit_edge ], [ 0, %4 ]
  call void @llvm.lifetime.end.p0(i64 8, ptr nonnull %5) #7
  ret i32 %.036
}